target datalayout = "e-m:e-p270:32:32-p271:32:32-p272:64:64-i64:64-i128:128-f80:128-n8:16:32:64-S128"
target triple = "x86_64-pc-linux-gnu"

%struct.TCGContext = type { ptr, ptr, ptr, ptr, ptr, i32, i32, i32, i32, i32, i32, i32, i8, i8, i8, i32, i32, i64, i64, i64, ptr, ptr, ptr, ptr, ptr, i64, ptr, ptr, ptr, ptr, %struct.anon, ptr, ptr, ptr, ptr, ptr, [6 x ptr], [6 x %struct.TCGTempSet], [512 x %struct.TCGTemp], %union.anon, %union.anon, %struct.anon.0, ptr, [32 x ptr], [512 x i16], ptr, [1 x %struct.__jmp_buf_tag] }
%struct.anon = type { ptr, ptr }
%struct.TCGTempSet = type { [8 x i64] }
%struct.TCGTemp = type { i64, i64, ptr, i64, ptr, i64, ptr }
%union.anon = type { %struct.QTailQLink }
%struct.QTailQLink = type { ptr, ptr }
%struct.anon.0 = type { ptr, ptr }
%struct.__jmp_buf_tag = type { [8 x i64], i32, %struct.__sigset_t }
%struct.__sigset_t = type { [16 x i64] }

@tcg_ctx = dso_local thread_local global ptr null, align 8
@.str.4 = private unnamed_addr constant [18 x i8] c"../qemu/tcg/tcg.c\00", align 1
@__func__.tcg_temp_new_internal = private unnamed_addr constant [22 x i8] c"tcg_temp_new_internal\00", align 1

; Function Attrs: alwaysinline nounwind
define internal ptr @memset.inline(ptr nonnull %0, i32 %1, i64 %2) #4 {
  %4 = alloca ptr, align 8
  %5 = alloca i32, align 4
  %6 = alloca i64, align 8
  store ptr %0, ptr %4, align 8
  store i32 %1, ptr %5, align 4
  store i64 %2, ptr %6, align 8
  %7 = load ptr, ptr %4, align 8
  %8 = load i32, ptr %5, align 4
  %9 = load i64, ptr %6, align 8
  %10 = load ptr, ptr %4, align 8
  %11 = call i64 @llvm.objectsize.i64.p0(ptr %10, i1 false, i1 true, i1 false)
  %12 = call ptr @__memset_chk(ptr noundef %7, i32 noundef %8, i64 noundef %9, i64 noundef %11) #19
  ret ptr %12
}

; Function Attrs: inlinehint nounwind sspstrong uwtable
define internal i32 @ctz64(i64 noundef %0) #3 {
  %2 = alloca i64, align 8
  store i64 %0, ptr %2, align 8
  %3 = load i64, ptr %2, align 8
  %4 = icmp ne i64 %3, 0
  br i1 %4, label %5, label %9

5:                                                ; preds = %1
  %6 = load i64, ptr %2, align 8
  %7 = call i64 @llvm.cttz.i64(i64 %6, i1 true)
  %8 = trunc i64 %7 to i32
  br label %10

9:                                                ; preds = %1
  br label %10

10:                                               ; preds = %9, %5
  %11 = phi i32 [ %8, %5 ], [ 64, %9 ]
  ret i32 %11
}

; Function Attrs: nounwind sspstrong uwtable
define internal ptr @tcg_temp_alloc(ptr noundef %0) #0 {
  %2 = alloca ptr, align 8
  %3 = alloca i32, align 4
  store ptr %0, ptr %2, align 8
  call void @llvm.lifetime.start.p0(i64 4, ptr %3) #19
  %4 = load ptr, ptr %2, align 8
  %5 = getelementptr inbounds nuw %struct.TCGContext, ptr %4, i32 0, i32 7
  %6 = load i32, ptr %5, align 8
  %7 = add i32 %6, 1
  store i32 %7, ptr %5, align 8
  store i32 %6, ptr %3, align 4
  %8 = load i32, ptr %3, align 4
  %9 = icmp sge i32 %8, 512
  br i1 %9, label %10, label %12

10:                                               ; preds = %1
  %11 = load ptr, ptr %2, align 8
  call void @tcg_raise_tb_overflow(ptr noundef %11) #20
  unreachable

12:                                               ; preds = %1
  %13 = load ptr, ptr %2, align 8
  %14 = getelementptr inbounds nuw %struct.TCGContext, ptr %13, i32 0, i32 38
  %15 = load i32, ptr %3, align 4
  %16 = sext i32 %15 to i64
  %17 = getelementptr inbounds [512 x %struct.TCGTemp], ptr %14, i64 0, i64 %16
  %18 = call ptr @memset.inline(ptr noundef %17, i32 noundef 0, i64 noundef 56) #19
  call void @llvm.lifetime.end.p0(i64 4, ptr %3) #19
  ret ptr %18
}

; Function Attrs: inlinehint nounwind sspstrong uwtable
define internal void @clear_bit(i64 noundef %0, ptr noundef %1) #3 {
  %3 = alloca i64, align 8
  %4 = alloca ptr, align 8
  %5 = alloca i64, align 8
  %6 = alloca ptr, align 8
  store i64 %0, ptr %3, align 8
  store ptr %1, ptr %4, align 8
  call void @llvm.lifetime.start.p0(i64 8, ptr %5) #19
  %7 = load i64, ptr %3, align 8
  %8 = urem i64 %7, 64
  %9 = shl i64 1, %8
  store i64 %9, ptr %5, align 8
  call void @llvm.lifetime.start.p0(i64 8, ptr %6) #19
  %10 = load ptr, ptr %4, align 8
  %11 = load i64, ptr %3, align 8
  %12 = udiv i64 %11, 64
  %13 = getelementptr inbounds nuw i64, ptr %10, i64 %12
  store ptr %13, ptr %6, align 8
  %14 = load i64, ptr %5, align 8
  %15 = xor i64 %14, -1
  %16 = load ptr, ptr %6, align 8
  %17 = load i64, ptr %16, align 8
  %18 = and i64 %17, %15
  store i64 %18, ptr %16, align 8
  call void @llvm.lifetime.end.p0(i64 8, ptr %6) #19
  call void @llvm.lifetime.end.p0(i64 8, ptr %5) #19
  ret void
}

; Function Attrs: inlinehint nounwind sspstrong uwtable
define internal i64 @find_first_bit(ptr noundef %0, i64 noundef %1) #3 {
  %3 = alloca i64, align 8
  %4 = alloca ptr, align 8
  %5 = alloca i64, align 8
  %6 = alloca i64, align 8
  %7 = alloca i64, align 8
  %8 = alloca i32, align 4
  store ptr %0, ptr %4, align 8
  store i64 %1, ptr %5, align 8
  call void @llvm.lifetime.start.p0(i64 8, ptr %6) #19
  store i64 0, ptr %6, align 8, !annotation !4
  call void @llvm.lifetime.start.p0(i64 8, ptr %7) #19
  store i64 0, ptr %7, align 8, !annotation !4
  store i64 0, ptr %6, align 8
  br label %9

9:                                                ; preds = %35, %2
  %10 = load i64, ptr %6, align 8
  %11 = load i64, ptr %5, align 8
  %12 = icmp ult i64 %10, %11
  br i1 %12, label %13, label %38

13:                                               ; preds = %9
  %14 = load ptr, ptr %4, align 8
  %15 = getelementptr inbounds nuw i64, ptr %14, i32 1
  store ptr %15, ptr %4, align 8
  %16 = load i64, ptr %14, align 8
  store i64 %16, ptr %7, align 8
  %17 = load i64, ptr %7, align 8
  %18 = icmp ne i64 %17, 0
  br i1 %18, label %19, label %34

19:                                               ; preds = %13
  %20 = load i64, ptr %7, align 8
  %21 = call i32 @ctz64(i64 noundef %20)
  %22 = sext i32 %21 to i64
  %23 = load i64, ptr %6, align 8
  %24 = add i64 %23, %22
  store i64 %24, ptr %6, align 8
  %25 = load i64, ptr %6, align 8
  %26 = load i64, ptr %5, align 8
  %27 = icmp ult i64 %25, %26
  br i1 %27, label %28, label %30

28:                                               ; preds = %19
  %29 = load i64, ptr %6, align 8
  br label %32

30:                                               ; preds = %19
  %31 = load i64, ptr %5, align 8
  br label %32

32:                                               ; preds = %30, %28
  %33 = phi i64 [ %29, %28 ], [ %31, %30 ]
  store i64 %33, ptr %3, align 8
  store i32 1, ptr %8, align 4
  br label %40

34:                                               ; preds = %13
  br label %35

35:                                               ; preds = %34
  %36 = load i64, ptr %6, align 8
  %37 = add i64 %36, 64
  store i64 %37, ptr %6, align 8
  br label %9, !llvm.loop !19

38:                                               ; preds = %9
  %39 = load i64, ptr %5, align 8
  store i64 %39, ptr %3, align 8
  store i32 1, ptr %8, align 4
  br label %40

40:                                               ; preds = %38, %32
  call void @llvm.lifetime.end.p0(i64 8, ptr %7) #19
  call void @llvm.lifetime.end.p0(i64 8, ptr %6) #19
  %41 = load i64, ptr %3, align 8
  ret i64 %41
}

; Function Attrs: nounwind sspstrong uwtable
define dso_local ptr @tcg_temp_new_internal(i32 noundef %0, i32 noundef %1) #0 {
  %3 = alloca ptr, align 8
  %4 = alloca i32, align 4
  %5 = alloca i32, align 4
  %6 = alloca ptr, align 8
  %7 = alloca ptr, align 8
  %8 = alloca i32, align 4
  %9 = alloca i32, align 4
  %10 = alloca i32, align 4
  %11 = alloca i32, align 4
  %12 = alloca ptr, align 8
  store i32 %0, ptr %4, align 4
  store i32 %1, ptr %5, align 4
  call void @llvm.lifetime.start.p0(i64 8, ptr %6) #19
  %13 = call align 8 ptr @llvm.threadlocal.address.p0(ptr align 8 @tcg_ctx)
  %14 = load ptr, ptr %13, align 8
  store ptr %14, ptr %6, align 8
  call void @llvm.lifetime.start.p0(i64 8, ptr %7) #19
  store ptr null, ptr %7, align 8, !annotation !4
  call void @llvm.lifetime.start.p0(i64 4, ptr %8) #19
  store i32 0, ptr %8, align 4, !annotation !4
  %15 = load i32, ptr %5, align 4
  %16 = icmp eq i32 %15, 0
  br i1 %16, label %17, label %77

17:                                               ; preds = %2
  call void @llvm.lifetime.start.p0(i64 4, ptr %9) #19
  %18 = load ptr, ptr %6, align 8
  %19 = getelementptr inbounds nuw %struct.TCGContext, ptr %18, i32 0, i32 37
  %20 = load i32, ptr %4, align 4
  %21 = zext i32 %20 to i64
  %22 = getelementptr inbounds nuw [6 x %struct.TCGTempSet], ptr %19, i64 0, i64 %21
  %23 = getelementptr inbounds nuw %struct.TCGTempSet, ptr %22, i32 0, i32 0
  %24 = getelementptr inbounds [8 x i64], ptr %23, i64 0, i64 0
  %25 = call i64 @find_first_bit(ptr noundef %24, i64 noundef 512)
  %26 = trunc i64 %25 to i32
  store i32 %26, ptr %9, align 4
  %27 = load i32, ptr %9, align 4
  %28 = icmp slt i32 %27, 512
  br i1 %28, label %29, label %73

29:                                               ; preds = %17
  %30 = load i32, ptr %9, align 4
  %31 = sext i32 %30 to i64
  %32 = load ptr, ptr %6, align 8
  %33 = getelementptr inbounds nuw %struct.TCGContext, ptr %32, i32 0, i32 37
  %34 = load i32, ptr %4, align 4
  %35 = zext i32 %34 to i64
  %36 = getelementptr inbounds nuw [6 x %struct.TCGTempSet], ptr %33, i64 0, i64 %35
  %37 = getelementptr inbounds nuw %struct.TCGTempSet, ptr %36, i32 0, i32 0
  %38 = getelementptr inbounds [8 x i64], ptr %37, i64 0, i64 0
  call void @clear_bit(i64 noundef %31, ptr noundef %38)
  %39 = load ptr, ptr %6, align 8
  %40 = getelementptr inbounds nuw %struct.TCGContext, ptr %39, i32 0, i32 38
  %41 = load i32, ptr %9, align 4
  %42 = sext i32 %41 to i64
  %43 = getelementptr inbounds [512 x %struct.TCGTemp], ptr %40, i64 0, i64 %42
  store ptr %43, ptr %7, align 8
  %44 = load ptr, ptr %7, align 8
  %45 = load i64, ptr %44, align 8
  %46 = and i64 %45, -549755813889
  %47 = or i64 %46, 549755813888
  store i64 %47, ptr %44, align 8
  br label %48

48:                                               ; preds = %29
  %49 = load ptr, ptr %7, align 8
  %50 = load i64, ptr %49, align 8
  %51 = lshr i64 %50, 16
  %52 = and i64 %51, 255
  %53 = trunc i64 %52 to i32
  %54 = load i32, ptr %4, align 4
  %55 = icmp eq i32 %53, %54
  br i1 %55, label %57, label %56

56:                                               ; preds = %48
  unreachable

57:                                               ; preds = %48
  br label %58

58:                                               ; preds = %57
  br label %59

59:                                               ; preds = %58
  br label %60

60:                                               ; preds = %59
  %61 = load ptr, ptr %7, align 8
  %62 = load i64, ptr %61, align 8
  %63 = lshr i64 %62, 32
  %64 = and i64 %63, 7
  %65 = trunc i64 %64 to i32
  %66 = load i32, ptr %5, align 4
  %67 = icmp eq i32 %65, %66
  br i1 %67, label %69, label %68

68:                                               ; preds = %60
  unreachable

69:                                               ; preds = %60
  br label %70

70:                                               ; preds = %69
  br label %71

71:                                               ; preds = %70
  %72 = load ptr, ptr %7, align 8
  store ptr %72, ptr %3, align 8
  store i32 1, ptr %10, align 4
  br label %74

73:                                               ; preds = %17
  store i32 0, ptr %10, align 4
  br label %74

74:                                               ; preds = %73, %71
  call void @llvm.lifetime.end.p0(i64 4, ptr %9) #19
  %75 = load i32, ptr %10, align 4
  switch i32 %75, label %190 [
    i32 0, label %76
  ]

76:                                               ; preds = %74
  br label %85

77:                                               ; preds = %2
  br label %78

78:                                               ; preds = %77
  %79 = load i32, ptr %5, align 4
  %80 = icmp eq i32 %79, 1
  br i1 %80, label %82, label %81

81:                                               ; preds = %78
  unreachable

82:                                               ; preds = %78
  br label %83

83:                                               ; preds = %82
  br label %84

84:                                               ; preds = %83
  br label %85

85:                                               ; preds = %84, %76
  %86 = load i32, ptr %4, align 4
  switch i32 %86, label %90 [
    i32 0, label %87
    i32 3, label %87
    i32 4, label %87
    i32 5, label %87
    i32 1, label %88
    i32 2, label %89
  ]

87:                                               ; preds = %85, %85, %85, %85
  store i32 1, ptr %8, align 4
  br label %94

88:                                               ; preds = %85
  store i32 1, ptr %8, align 4
  br label %94

89:                                               ; preds = %85
  store i32 2, ptr %8, align 4
  br label %94

90:                                               ; preds = %85
  br label %91

91:                                               ; preds = %90
  call void @g_assertion_message_expr(ptr noundef null, ptr noundef @.str.4, i32 noundef 1867, ptr noundef @__func__.tcg_temp_new_internal, ptr noundef null) #20
  unreachable

92:                                               ; No predecessors!
  br label %93

93:                                               ; preds = %92
  br label %94

94:                                               ; preds = %93, %89, %88, %87
  %95 = load ptr, ptr %6, align 8
  %96 = call ptr @tcg_temp_alloc(ptr noundef %95)
  store ptr %96, ptr %7, align 8
  %97 = load i32, ptr %4, align 4
  %98 = load ptr, ptr %7, align 8
  %99 = zext i32 %97 to i64
  %100 = load i64, ptr %98, align 8
  %101 = and i64 %99, 255
  %102 = shl i64 %101, 16
  %103 = and i64 %100, -16711681
  %104 = or i64 %103, %102
  store i64 %104, ptr %98, align 8
  %105 = load ptr, ptr %7, align 8
  %106 = load i64, ptr %105, align 8
  %107 = and i64 %106, -549755813889
  %108 = or i64 %107, 549755813888
  store i64 %108, ptr %105, align 8
  %109 = load i32, ptr %5, align 4
  %110 = load ptr, ptr %7, align 8
  %111 = zext i32 %109 to i64
  %112 = load i64, ptr %110, align 8
  %113 = and i64 %111, 7
  %114 = shl i64 %113, 32
  %115 = and i64 %112, -30064771073
  %116 = or i64 %115, %114
  store i64 %116, ptr %110, align 8
  %117 = load i32, ptr %8, align 4
  %118 = icmp eq i32 %117, 1
  br i1 %118, label %119, label %128

119:                                              ; preds = %94
  %120 = load i32, ptr %4, align 4
  %121 = load ptr, ptr %7, align 8
  %122 = zext i32 %120 to i64
  %123 = load i64, ptr %121, align 8
  %124 = and i64 %122, 255
  %125 = shl i64 %124, 24
  %126 = and i64 %123, -4278190081
  %127 = or i64 %126, %125
  store i64 %127, ptr %121, align 8
  br label %188

128:                                              ; preds = %94
  %129 = load ptr, ptr %7, align 8
  %130 = load i64, ptr %129, align 8
  %131 = and i64 %130, -4278190081
  %132 = or i64 %131, 16777216
  store i64 %132, ptr %129, align 8
  call void @llvm.lifetime.start.p0(i64 4, ptr %11) #19
  store i32 1, ptr %11, align 4
  br label %133

133:                                              ; preds = %184, %128
  %134 = load i32, ptr %11, align 4
  %135 = load i32, ptr %8, align 4
  %136 = icmp slt i32 %134, %135
  br i1 %136, label %138, label %137

137:                                              ; preds = %133
  store i32 11, ptr %10, align 4
  call void @llvm.lifetime.end.p0(i64 4, ptr %11) #19
  br label %187

138:                                              ; preds = %133
  call void @llvm.lifetime.start.p0(i64 8, ptr %12) #19
  %139 = load ptr, ptr %6, align 8
  %140 = call ptr @tcg_temp_alloc(ptr noundef %139)
  store ptr %140, ptr %12, align 8
  br label %141

141:                                              ; preds = %138
  %142 = load ptr, ptr %12, align 8
  %143 = load ptr, ptr %7, align 8
  %144 = load i32, ptr %11, align 4
  %145 = sext i32 %144 to i64
  %146 = getelementptr inbounds %struct.TCGTemp, ptr %143, i64 %145
  %147 = icmp eq ptr %142, %146
  br i1 %147, label %149, label %148

148:                                              ; preds = %141
  unreachable

149:                                              ; preds = %141
  br label %150

150:                                              ; preds = %149
  br label %151

151:                                              ; preds = %150
  %152 = load i32, ptr %4, align 4
  %153 = load ptr, ptr %12, align 8
  %154 = zext i32 %152 to i64
  %155 = load i64, ptr %153, align 8
  %156 = and i64 %154, 255
  %157 = shl i64 %156, 16
  %158 = and i64 %155, -16711681
  %159 = or i64 %158, %157
  store i64 %159, ptr %153, align 8
  %160 = load ptr, ptr %12, align 8
  %161 = load i64, ptr %160, align 8
  %162 = and i64 %161, -4278190081
  %163 = or i64 %162, 16777216
  store i64 %163, ptr %160, align 8
  %164 = load ptr, ptr %12, align 8
  %165 = load i64, ptr %164, align 8
  %166 = and i64 %165, -549755813889
  %167 = or i64 %166, 549755813888
  store i64 %167, ptr %164, align 8
  %168 = load i32, ptr %11, align 4
  %169 = load ptr, ptr %12, align 8
  %170 = zext i32 %168 to i64
  %171 = load i64, ptr %169, align 8
  %172 = and i64 %170, 3
  %173 = shl i64 %172, 40
  %174 = and i64 %171, -3298534883329
  %175 = or i64 %174, %173
  store i64 %175, ptr %169, align 8
  %176 = load i32, ptr %5, align 4
  %177 = load ptr, ptr %12, align 8
  %178 = zext i32 %176 to i64
  %179 = load i64, ptr %177, align 8
  %180 = and i64 %178, 7
  %181 = shl i64 %180, 32
  %182 = and i64 %179, -30064771073
  %183 = or i64 %182, %181
  store i64 %183, ptr %177, align 8
  call void @llvm.lifetime.end.p0(i64 8, ptr %12) #19
  br label %184

184:                                              ; preds = %151
  %185 = load i32, ptr %11, align 4
  %186 = add i32 %185, 1
  store i32 %186, ptr %11, align 4
  br label %133, !llvm.loop !18

187:                                              ; preds = %137
  br label %188

188:                                              ; preds = %187, %119
  %189 = load ptr, ptr %7, align 8
  store ptr %189, ptr %3, align 8
  store i32 1, ptr %10, align 4
  br label %190

190:                                              ; preds = %188, %74
  call void @llvm.lifetime.end.p0(i64 4, ptr %8) #19
  call void @llvm.lifetime.end.p0(i64 8, ptr %7) #19
  call void @llvm.lifetime.end.p0(i64 8, ptr %6) #19
  %191 = load ptr, ptr %3, align 8
  ret ptr %191
}