; Function Attrs: nounwind sspstrong uwtable
define dso_local noundef ptr @tcg_temp_new_internal(i32 noundef %0, i32 noundef %1) local_unnamed_addr #0 {
  %3 = tail call align 8 ptr @llvm.threadlocal.address.p0(ptr align 8 @tcg_ctx)
  %4 = load ptr, ptr %3, align 8
  %5 = icmp eq i32 %1, 0
  br i1 %5, label %6, label %34

6:                                                ; preds = %2
  %7 = getelementptr inbounds nuw i8, ptr %4, i64 288
  %8 = zext i32 %0 to i64
  %9 = getelementptr inbounds nuw [6 x %struct.TCGTempSet], ptr %7, i64 0, i64 %8
  br label %10

10:                                               ; preds = %12, %6
  %.018.i = phi i64 [ 0, %6 ], [ %14, %12 ]
  %.01317.i = phi ptr [ %9, %6 ], [ %13, %12 ]
  %11 = load i64, ptr %.01317.i, align 8
  %.not.i = icmp eq i64 %11, 0
  br i1 %.not.i, label %12, label %find_first_bit.exit

12:                                               ; preds = %10
  %13 = getelementptr inbounds nuw i8, ptr %.01317.i, i64 8
  %14 = add nuw nsw i64 %.018.i, 64
  %15 = icmp samesign ult i64 %.018.i, 448
  br i1 %15, label %10, label %.thread, !llvm.loop !6

find_first_bit.exit:                              ; preds = %10
  %16 = tail call range(i64 0, 65) i64 @llvm.cttz.i64(i64 range(i64 1, 0) %11, i1 true)
  %17 = or disjoint i64 %16, %.018.i
  %18 = shl nuw i64 1, %16
  %19 = lshr exact i64 %.018.i, 3
  %20 = getelementptr inbounds nuw i8, ptr %9, i64 %19
  %21 = xor i64 %18, -1
  %22 = load i64, ptr %20, align 8
  %23 = and i64 %22, %21
  store i64 %23, ptr %20, align 8
  %24 = getelementptr inbounds nuw i8, ptr %4, i64 672
  %25 = getelementptr inbounds nuw [512 x %struct.TCGTemp], ptr %24, i64 0, i64 %17
  %26 = load i64, ptr %25, align 8
  %27 = or i64 %26, 549755813888
  store i64 %27, ptr %25, align 8
  %28 = trunc i64 %26 to i32
  %29 = lshr i32 %28, 16
  %30 = and i32 %29, 255
  %31 = icmp eq i32 %30, %0
  tail call void @llvm.assume(i1 %31)
  %32 = and i64 %26, 30064771072
  %33 = icmp eq i64 %32, 0
  tail call void @llvm.assume(i1 %33)
  br label %67

34:                                               ; preds = %2
  %35 = icmp eq i32 %1, 1
  tail call void @llvm.assume(i1 %35)
  br label %.thread

.thread:                                          ; preds = %12, %34
  %36 = icmp ult i32 %0, 6
  br i1 %36, label %switch.lookup, label %37

37:                                               ; preds = %.thread
  tail call void @g_assertion_message_expr(ptr noundef null, ptr noundef nonnull @.str.4, i32 noundef 1867, ptr noundef nonnull @__func__.tcg_temp_new_internal, ptr noundef null) #31
  unreachable

switch.lookup:                                    ; preds = %.thread
  %38 = getelementptr inbounds nuw i8, ptr %4, i64 48
  %39 = load i32, ptr %38, align 8
  %40 = add i32 %39, 1
  store i32 %40, ptr %38, align 8
  %41 = icmp sgt i32 %39, 511
  br i1 %41, label %42, label %tcg_temp_alloc.exit

42:                                               ; preds = %switch.lookup
  tail call fastcc void @tcg_raise_tb_overflow(ptr noundef nonnull %4) #32
  unreachable

tcg_temp_alloc.exit:                              ; preds = %switch.lookup
  %switch.cast = trunc nuw i32 %0 to i6
  %switch.downshift = lshr i6 -5, %switch.cast
  %switch.masked = trunc i6 %switch.downshift to i1
  %43 = getelementptr inbounds nuw i8, ptr %4, i64 672
  %44 = sext i32 %39 to i64
  %45 = getelementptr inbounds [512 x %struct.TCGTemp], ptr %43, i64 0, i64 %44
  tail call void @llvm.memset.p0.i64(ptr noundef nonnull align 1 dereferenceable(56) %45, i8 noundef 0, i64 noundef 56, i1 noundef false) #30
  %46 = zext nneg i32 %0 to i64
  %47 = shl nuw nsw i64 %46, 16
  %48 = and i32 %1, 7
  %49 = zext nneg i32 %48 to i64
  %50 = shl nuw nsw i64 %49, 32
  %51 = or disjoint i64 %47, %50
  br i1 %switch.masked, label %52, label %.critedge

52:                                               ; preds = %tcg_temp_alloc.exit
  %53 = shl nuw nsw i64 %46, 24
  %54 = or disjoint i64 %51, %53
  %55 = or disjoint i64 %54, 549755813888
  store i64 %55, ptr %45, align 8
  br label %67

.critedge:                                        ; preds = %tcg_temp_alloc.exit
  %56 = or disjoint i64 %51, 549772591104
  store i64 %56, ptr %45, align 8
  %57 = load i32, ptr %38, align 8
  %58 = add i32 %57, 1
  store i32 %58, ptr %38, align 8
  %59 = icmp sgt i32 %57, 511
  br i1 %59, label %60, label %tcg_temp_alloc.exit50

60:                                               ; preds = %.critedge
  tail call fastcc void @tcg_raise_tb_overflow(ptr noundef nonnull %4) #32
  unreachable

tcg_temp_alloc.exit50:                            ; preds = %.critedge
  %61 = sext i32 %57 to i64
  %62 = getelementptr inbounds [512 x %struct.TCGTemp], ptr %43, i64 0, i64 %61
  tail call void @llvm.memset.p0.i64(ptr noundef nonnull align 1 dereferenceable(56) %62, i8 noundef 0, i64 noundef 56, i1 noundef false) #30
  %63 = getelementptr inbounds nuw i8, ptr %45, i64 56
  %64 = icmp eq ptr %62, %63
  tail call void @llvm.assume(i1 %64)
  %65 = or disjoint i64 %47, %50
  %66 = or disjoint i64 %65, 1649284218880
  store i64 %66, ptr %62, align 8
  br label %67

67:                                               ; preds = %find_first_bit.exit, %52, %tcg_temp_alloc.exit50
  %.1 = phi ptr [ %25, %find_first_bit.exit ], [ %45, %tcg_temp_alloc.exit50 ], [ %45, %52 ]
  ret ptr %.1
}